target datalayout = "e-m:e-p270:32:32-p271:32:32-p272:64:64-i64:64-i128:128-f80:128-n8:16:32:64-S128"
target triple = "x86_64-unknown-linux-gnu"

%struct.winsize = type { i16, i16, i16, i16 }

@.str = private unnamed_addr constant [8 x i8] c"\1B[H\1B[2J\00", align 1
@ws = internal global %struct.winsize zeroinitializer, align 2
@.str.1 = private unnamed_addr constant [2 x i8] c".\00", align 1
@.str.2 = private unnamed_addr constant [64 x i8] c"Please keep the test running several minutes per GB of memory.\0A\00", align 1
@.str.3 = private unnamed_addr constant [79 x i8] c"Also check http://www.memtest86.com/ and http://pyropus.ca/software/memtester/\00", align 1
@.str.4 = private unnamed_addr constant [8 x i8] c"\1B[H\1B[2K\00", align 1
@.str.5 = private unnamed_addr constant [9 x i8] c"%s [%d]\0A\00", align 1
@progress_printed = dso_local global i64 0, align 8
@progress_full = dso_local global i64 0, align 8
@stdout = external global ptr, align 8

; Function Attrs: nounwind uwtable
define dso_local void @memtest_progress_start(ptr noundef %title, i32 noundef %pass) #0 {
entry:
  %title.addr = alloca ptr, align 8
  %pass.addr = alloca i32, align 4
  %j = alloca i32, align 4
  store ptr %title, ptr %title.addr, align 8
  store i32 %pass, ptr %pass.addr, align 4
  %call = call i32 (ptr, ...) @printf(ptr noundef @.str)
  store i32 0, ptr %j, align 4
  br label %for.cond

for.cond:                                         ; preds = %for.inc, %entry
  %0 = load i32, ptr %j, align 4
  %1 = load i16, ptr getelementptr inbounds (%struct.winsize, ptr @ws, i32 0, i32 1), align 2
  %conv = zext i16 %1 to i32
  %2 = load i16, ptr @ws, align 2
  %conv1 = zext i16 %2 to i32
  %sub = sub nsw i32 %conv1, 2
  %mul = mul nsw i32 %conv, %sub
  %cmp = icmp slt i32 %0, %mul
  br i1 %cmp, label %for.body, label %for.end

for.body:                                         ; preds = %for.cond
  %call3 = call i32 (ptr, ...) @printf(ptr noundef @.str.1)
  br label %for.inc

for.inc:                                          ; preds = %for.body
  %3 = load i32, ptr %j, align 4
  %inc = add nsw i32 %3, 1
  store i32 %inc, ptr %j, align 4
  br label %for.cond, !llvm.loop !5

for.end:                                          ; preds = %for.cond
  %call4 = call i32 (ptr, ...) @printf(ptr noundef @.str.2)
  %call5 = call i32 (ptr, ...) @printf(ptr noundef @.str.3)
  %call6 = call i32 (ptr, ...) @printf(ptr noundef @.str.4)
  %4 = load ptr, ptr %title.addr, align 8
  %5 = load i32, ptr %pass.addr, align 4
  %call7 = call i32 (ptr, ...) @printf(ptr noundef @.str.5, ptr noundef %4, i32 noundef %5)
  store i64 0, ptr @progress_printed, align 8
  %6 = load i16, ptr getelementptr inbounds (%struct.winsize, ptr @ws, i32 0, i32 1), align 2
  %conv8 = zext i16 %6 to i64
  %7 = load i16, ptr @ws, align 2
  %conv9 = zext i16 %7 to i32
  %sub10 = sub nsw i32 %conv9, 3
  %conv11 = sext i32 %sub10 to i64
  %mul12 = mul i64 %conv8, %conv11
  store i64 %mul12, ptr @progress_full, align 8
  %8 = load ptr, ptr @stdout, align 8
  %call13 = call i32 @fflush(ptr noundef %8)
  ret void
}