; Function Attrs: nofree nounwind uwtable
define dso_local void @memtest_progress_start(ptr noundef %title, i32 noundef %pass) local_unnamed_addr #0 {
entry:
  %call = tail call i32 (ptr, ...) @printf(ptr noundef nonnull dereferenceable(1) @.str)
  %0 = load i16, ptr getelementptr inbounds (%struct.winsize, ptr @ws, i64 0, i32 1), align 2
  %conv2 = zext i16 %0 to i32
  %1 = load i16, ptr @ws, align 2
  %conv13 = zext i16 %1 to i32
  %sub4 = add nsw i32 %conv13, -2
  %mul5 = mul nsw i32 %sub4, %conv2
  %cmp6 = icmp sgt i32 %mul5, 0
  br i1 %cmp6, label %for.body, label %for.end

for.body:                                         ; preds = %entry, %for.body
  %j.07 = phi i32 [ %inc, %for.body ], [ 0, %entry ]
  %putchar = tail call i32 @putchar(i32 46)
  %inc = add nuw nsw i32 %j.07, 1
  %2 = load i16, ptr getelementptr inbounds (%struct.winsize, ptr @ws, i64 0, i32 1), align 2
  %conv = zext i16 %2 to i32
  %3 = load i16, ptr @ws, align 2
  %conv1 = zext i16 %3 to i32
  %sub = add nsw i32 %conv1, -2
  %mul = mul nsw i32 %sub, %conv
  %cmp = icmp slt i32 %inc, %mul
  br i1 %cmp, label %for.body, label %for.end, !llvm.loop !5

for.end:                                          ; preds = %for.body, %entry
  %puts = tail call i32 @puts(ptr nonnull dereferenceable(1) @str)
  %call5 = tail call i32 (ptr, ...) @printf(ptr noundef nonnull dereferenceable(1) @.str.3)
  %call6 = tail call i32 (ptr, ...) @printf(ptr noundef nonnull dereferenceable(1) @.str.4)
  %call7 = tail call i32 (ptr, ...) @printf(ptr noundef nonnull dereferenceable(1) @.str.5, ptr noundef %title, i32 noundef %pass)
  store i64 0, ptr @progress_printed, align 8
  %4 = load i16, ptr getelementptr inbounds (%struct.winsize, ptr @ws, i64 0, i32 1), align 2
  %conv8 = zext i16 %4 to i64
  %5 = load i16, ptr @ws, align 2
  %conv9 = zext i16 %5 to i64
  %sub10 = add nsw i64 %conv9, -3
  %mul12 = mul nsw i64 %sub10, %conv8
  store i64 %mul12, ptr @progress_full, align 8
  %6 = load ptr, ptr @stdout, align 8
  %call13 = tail call i32 @fflush(ptr noundef %6)
  ret void
}